target datalayout = "e-m:e-p270:32:32-p271:32:32-p272:64:64-i64:64-i128:128-f80:128-n8:16:32:64-S128"
target triple = "x86_64-pc-linux-gnu"

%struct.cbuf = type { %union.pthread_mutex_t, i32, i32, i32, i32, i32, i32, i32, i32, i32, i32, ptr }
%union.pthread_mutex_t = type { %struct.__pthread_mutex_s }
%struct.__pthread_mutex_s = type { i32, i32, i32, i32, i32, i16, i16, %struct.__pthread_internal_list }
%struct.__pthread_internal_list = type { ptr, ptr }

@.str.2 = private unnamed_addr constant [29 x i8] c"%s: pthread_mutex_lock(): %m\00", align 1
@.str.3 = private unnamed_addr constant [31 x i8] c"%s: pthread_mutex_unlock(): %m\00", align 1
@__func__.cbuf_drop_line = private unnamed_addr constant [15 x i8] c"cbuf_drop_line\00", align 1

; Function Attrs: nounwind uwtable
define internal i32 @cbuf_shrink(ptr noundef %0) #0 {
  %2 = alloca i32, align 4
  %3 = alloca ptr, align 8
  store ptr %0, ptr %3, align 8
  %4 = load ptr, ptr %3, align 8
  %5 = getelementptr inbounds nuw %struct.cbuf, ptr %4, i32 0, i32 4
  %6 = load i32, ptr %5, align 4
  %7 = load ptr, ptr %3, align 8
  %8 = getelementptr inbounds nuw %struct.cbuf, ptr %7, i32 0, i32 2
  %9 = load i32, ptr %8, align 4
  %10 = icmp eq i32 %6, %9
  br i1 %10, label %11, label %12

11:                                               ; preds = %1
  store i32 0, ptr %2, align 4
  br label %23

12:                                               ; preds = %1
  %13 = load ptr, ptr %3, align 8
  %14 = getelementptr inbounds nuw %struct.cbuf, ptr %13, i32 0, i32 4
  %15 = load i32, ptr %14, align 4
  %16 = load ptr, ptr %3, align 8
  %17 = getelementptr inbounds nuw %struct.cbuf, ptr %16, i32 0, i32 5
  %18 = load i32, ptr %17, align 8
  %19 = sub nsw i32 %15, %18
  %20 = icmp sle i32 %19, 1000
  br i1 %20, label %21, label %22

21:                                               ; preds = %12
  store i32 0, ptr %2, align 4
  br label %23

22:                                               ; preds = %12
  store i32 0, ptr %2, align 4
  br label %23

23:                                               ; preds = %22, %21, %11
  %24 = load i32, ptr %2, align 4
  ret i32 %24
}

; Function Attrs: nounwind uwtable
define internal i32 @cbuf_dropper(ptr noundef %0, i32 noundef %1) #0 {
  %3 = alloca ptr, align 8
  %4 = alloca i32, align 4
  store ptr %0, ptr %3, align 8
  store i32 %1, ptr %4, align 4
  %5 = load i32, ptr %4, align 4
  %6 = load ptr, ptr %3, align 8
  %7 = getelementptr inbounds nuw %struct.cbuf, ptr %6, i32 0, i32 5
  %8 = load i32, ptr %7, align 8
  %9 = sub nsw i32 %8, %5
  store i32 %9, ptr %7, align 8
  %10 = load ptr, ptr %3, align 8
  %11 = getelementptr inbounds nuw %struct.cbuf, ptr %10, i32 0, i32 9
  %12 = load i32, ptr %11, align 8
  %13 = load i32, ptr %4, align 4
  %14 = add nsw i32 %12, %13
  %15 = load ptr, ptr %3, align 8
  %16 = getelementptr inbounds nuw %struct.cbuf, ptr %15, i32 0, i32 4
  %17 = load i32, ptr %16, align 4
  %18 = add nsw i32 %17, 1
  %19 = srem i32 %14, %18
  %20 = load ptr, ptr %3, align 8
  %21 = getelementptr inbounds nuw %struct.cbuf, ptr %20, i32 0, i32 9
  store i32 %19, ptr %21, align 8
  %22 = load ptr, ptr %3, align 8
  %23 = getelementptr inbounds nuw %struct.cbuf, ptr %22, i32 0, i32 4
  %24 = load i32, ptr %23, align 4
  %25 = load ptr, ptr %3, align 8
  %26 = getelementptr inbounds nuw %struct.cbuf, ptr %25, i32 0, i32 5
  %27 = load i32, ptr %26, align 8
  %28 = sub nsw i32 %24, %27
  %29 = icmp sgt i32 %28, 1000
  br i1 %29, label %30, label %41

30:                                               ; preds = %2
  %31 = load ptr, ptr %3, align 8
  %32 = getelementptr inbounds nuw %struct.cbuf, ptr %31, i32 0, i32 4
  %33 = load i32, ptr %32, align 4
  %34 = load ptr, ptr %3, align 8
  %35 = getelementptr inbounds nuw %struct.cbuf, ptr %34, i32 0, i32 2
  %36 = load i32, ptr %35, align 4
  %37 = icmp sgt i32 %33, %36
  br i1 %37, label %38, label %41

38:                                               ; preds = %30
  %39 = load ptr, ptr %3, align 8
  %40 = call i32 @cbuf_shrink(ptr noundef %39)
  br label %41

41:                                               ; preds = %38, %30, %2
  %42 = load i32, ptr %4, align 4
  ret i32 %42
}

; Function Attrs: nounwind uwtable
define internal i32 @cbuf_find_unread_line(ptr noundef %0, i32 noundef %1, ptr noundef %2) #0 {
  %4 = alloca i32, align 4
  %5 = alloca ptr, align 8
  %6 = alloca i32, align 4
  %7 = alloca ptr, align 8
  %8 = alloca i32, align 4
  %9 = alloca i32, align 4
  %10 = alloca i32, align 4
  %11 = alloca i32, align 4
  %12 = alloca i32, align 4
  %13 = alloca i32, align 4
  store ptr %0, ptr %5, align 8
  store i32 %1, ptr %6, align 4
  store ptr %2, ptr %7, align 8
  call void @llvm.lifetime.start.p0(i64 4, ptr %8) #8
  call void @llvm.lifetime.start.p0(i64 4, ptr %9) #8
  call void @llvm.lifetime.start.p0(i64 4, ptr %10) #8
  call void @llvm.lifetime.start.p0(i64 4, ptr %11) #8
  call void @llvm.lifetime.start.p0(i64 4, ptr %12) #8
  store i32 0, ptr %11, align 4
  store i32 0, ptr %10, align 4
  store i32 0, ptr %9, align 4
  %14 = load ptr, ptr %7, align 8
  %15 = load i32, ptr %14, align 4
  store i32 %15, ptr %12, align 4
  %16 = load ptr, ptr %7, align 8
  store i32 0, ptr %16, align 4
  %17 = load i32, ptr %12, align 4
  %18 = icmp eq i32 %17, 0
  br i1 %18, label %25, label %19

19:                                               ; preds = %3
  %20 = load i32, ptr %12, align 4
  %21 = icmp sle i32 %20, -1
  br i1 %21, label %22, label %26

22:                                               ; preds = %19
  %23 = load i32, ptr %6, align 4
  %24 = icmp sle i32 %23, 0
  br i1 %24, label %25, label %26

25:                                               ; preds = %22, %3
  store i32 0, ptr %4, align 4
  store i32 1, ptr %13, align 4
  br label %97

26:                                               ; preds = %22, %19
  %27 = load ptr, ptr %5, align 8
  %28 = getelementptr inbounds nuw %struct.cbuf, ptr %27, i32 0, i32 5
  %29 = load i32, ptr %28, align 8
  %30 = icmp eq i32 %29, 0
  br i1 %30, label %31, label %32

31:                                               ; preds = %26
  store i32 0, ptr %4, align 4
  store i32 1, ptr %13, align 4
  br label %97

32:                                               ; preds = %26
  %33 = load i32, ptr %12, align 4
  %34 = icmp sgt i32 %33, 0
  br i1 %34, label %35, label %36

35:                                               ; preds = %32
  store i32 -1, ptr %6, align 4
  br label %36

36:                                               ; preds = %35, %32
  %37 = load ptr, ptr %5, align 8
  %38 = getelementptr inbounds nuw %struct.cbuf, ptr %37, i32 0, i32 9
  %39 = load i32, ptr %38, align 8
  store i32 %39, ptr %8, align 4
  br label %40

40:                                               ; preds = %81, %36
  %41 = load i32, ptr %8, align 4
  %42 = load ptr, ptr %5, align 8
  %43 = getelementptr inbounds nuw %struct.cbuf, ptr %42, i32 0, i32 8
  %44 = load i32, ptr %43, align 4
  %45 = icmp ne i32 %41, %44
  br i1 %45, label %46, label %89

46:                                               ; preds = %40
  %47 = load i32, ptr %9, align 4
  %48 = add nsw i32 %47, 1
  store i32 %48, ptr %9, align 4
  %49 = load i32, ptr %6, align 4
  %50 = icmp sgt i32 %49, 0
  br i1 %50, label %51, label %54

51:                                               ; preds = %46
  %52 = load i32, ptr %6, align 4
  %53 = add nsw i32 %52, -1
  store i32 %53, ptr %6, align 4
  br label %54

54:                                               ; preds = %51, %46
  %55 = load ptr, ptr %5, align 8
  %56 = getelementptr inbounds nuw %struct.cbuf, ptr %55, i32 0, i32 11
  %57 = load ptr, ptr %56, align 8
  %58 = load i32, ptr %8, align 4
  %59 = sext i32 %58 to i64
  %60 = getelementptr inbounds i8, ptr %57, i64 %59
  %61 = load i8, ptr %60, align 1
  %62 = zext i8 %61 to i32
  %63 = icmp eq i32 %62, 10
  br i1 %63, label %64, label %74

64:                                               ; preds = %54
  %65 = load i32, ptr %12, align 4
  %66 = icmp sgt i32 %65, 0
  br i1 %66, label %67, label %70

67:                                               ; preds = %64
  %68 = load i32, ptr %12, align 4
  %69 = add nsw i32 %68, -1
  store i32 %69, ptr %12, align 4
  br label %70

70:                                               ; preds = %67, %64
  %71 = load i32, ptr %9, align 4
  store i32 %71, ptr %10, align 4
  %72 = load i32, ptr %11, align 4
  %73 = add nsw i32 %72, 1
  store i32 %73, ptr %11, align 4
  br label %74

74:                                               ; preds = %70, %54
  %75 = load i32, ptr %6, align 4
  %76 = icmp eq i32 %75, 0
  br i1 %76, label %80, label %77

77:                                               ; preds = %74
  %78 = load i32, ptr %12, align 4
  %79 = icmp eq i32 %78, 0
  br i1 %79, label %80, label %81

80:                                               ; preds = %77, %74
  br label %89

81:                                               ; preds = %77
  %82 = load i32, ptr %8, align 4
  %83 = add nsw i32 %82, 1
  %84 = load ptr, ptr %5, align 8
  %85 = getelementptr inbounds nuw %struct.cbuf, ptr %84, i32 0, i32 4
  %86 = load i32, ptr %85, align 4
  %87 = add nsw i32 %86, 1
  %88 = srem i32 %83, %87
  store i32 %88, ptr %8, align 4
  br label %40, !llvm.loop !8

89:                                               ; preds = %80, %40
  %90 = load i32, ptr %12, align 4
  %91 = icmp sgt i32 %90, 0
  br i1 %91, label %92, label %93

92:                                               ; preds = %89
  store i32 0, ptr %4, align 4
  store i32 1, ptr %13, align 4
  br label %97

93:                                               ; preds = %89
  %94 = load i32, ptr %11, align 4
  %95 = load ptr, ptr %7, align 8
  store i32 %94, ptr %95, align 4
  %96 = load i32, ptr %10, align 4
  store i32 %96, ptr %4, align 4
  store i32 1, ptr %13, align 4
  br label %97

97:                                               ; preds = %93, %92, %31, %25
  call void @llvm.lifetime.end.p0(i64 4, ptr %12) #8
  call void @llvm.lifetime.end.p0(i64 4, ptr %11) #8
  call void @llvm.lifetime.end.p0(i64 4, ptr %10) #8
  call void @llvm.lifetime.end.p0(i64 4, ptr %9) #8
  call void @llvm.lifetime.end.p0(i64 4, ptr %8) #8
  %98 = load i32, ptr %4, align 4
  ret i32 %98
}

; Function Attrs: nounwind uwtable
define dso_local i32 @cbuf_drop_line(ptr noundef %0, i32 noundef %1, i32 noundef %2) #0 {
  %4 = alloca i32, align 4
  %5 = alloca ptr, align 8
  %6 = alloca i32, align 4
  %7 = alloca i32, align 4
  %8 = alloca i32, align 4
  %9 = alloca i32, align 4
  %10 = alloca i32, align 4
  %11 = alloca i32, align 4
  store ptr %0, ptr %5, align 8
  store i32 %1, ptr %6, align 4
  store i32 %2, ptr %7, align 4
  call void @llvm.lifetime.start.p0(i64 4, ptr %8) #8
  %12 = load i32, ptr %6, align 4
  %13 = icmp slt i32 %12, 0
  br i1 %13, label %17, label %14

14:                                               ; preds = %3
  %15 = load i32, ptr %7, align 4
  %16 = icmp slt i32 %15, -1
  br i1 %16, label %17, label %19

17:                                               ; preds = %14, %3
  %18 = call ptr @__errno_location() #9
  store i32 22, ptr %18, align 4
  store i32 -1, ptr %4, align 4
  store i32 1, ptr %9, align 4
  br label %59

19:                                               ; preds = %14
  %20 = load i32, ptr %7, align 4
  %21 = icmp eq i32 %20, 0
  br i1 %21, label %22, label %23

22:                                               ; preds = %19
  store i32 0, ptr %4, align 4
  store i32 1, ptr %9, align 4
  br label %59

23:                                               ; preds = %19
  br label %24

24:                                               ; preds = %23
  call void @llvm.lifetime.start.p0(i64 4, ptr %10) #8
  %25 = load ptr, ptr %5, align 8
  %26 = getelementptr inbounds nuw %struct.cbuf, ptr %25, i32 0, i32 0
  %27 = call i32 @pthread_mutex_lock(ptr noundef %26) #8
  store i32 %27, ptr %10, align 4
  %28 = load i32, ptr %10, align 4
  %29 = icmp ne i32 %28, 0
  br i1 %29, label %30, label %33

30:                                               ; preds = %24
  %31 = load i32, ptr %10, align 4
  %32 = call ptr @__errno_location() #9
  store i32 %31, ptr %32, align 4
  call void (ptr, ...) @fatal_abort(ptr noundef @.str.2, ptr noundef @__func__.cbuf_drop_line) #10
  unreachable

33:                                               ; preds = %24
  call void @llvm.lifetime.end.p0(i64 4, ptr %10) #8
  br label %34

34:                                               ; preds = %33
  br label %35

35:                                               ; preds = %34
  %36 = load ptr, ptr %5, align 8
  %37 = load i32, ptr %6, align 4
  %38 = call i32 @cbuf_find_unread_line(ptr noundef %36, i32 noundef %37, ptr noundef %7)
  store i32 %38, ptr %8, align 4
  %39 = load i32, ptr %8, align 4
  %40 = icmp sgt i32 %39, 0
  br i1 %40, label %41, label %45

41:                                               ; preds = %35
  %42 = load ptr, ptr %5, align 8
  %43 = load i32, ptr %8, align 4
  %44 = call i32 @cbuf_dropper(ptr noundef %42, i32 noundef %43)
  br label %45

45:                                               ; preds = %41, %35
  br label %46

46:                                               ; preds = %45
  call void @llvm.lifetime.start.p0(i64 4, ptr %11) #8
  %47 = load ptr, ptr %5, align 8
  %48 = getelementptr inbounds nuw %struct.cbuf, ptr %47, i32 0, i32 0
  %49 = call i32 @pthread_mutex_unlock(ptr noundef %48) #8
  store i32 %49, ptr %11, align 4
  %50 = load i32, ptr %11, align 4
  %51 = icmp ne i32 %50, 0
  br i1 %51, label %52, label %55

52:                                               ; preds = %46
  %53 = load i32, ptr %11, align 4
  %54 = call ptr @__errno_location() #9
  store i32 %53, ptr %54, align 4
  call void (ptr, ...) @fatal_abort(ptr noundef @.str.3, ptr noundef @__func__.cbuf_drop_line) #10
  unreachable

55:                                               ; preds = %46
  call void @llvm.lifetime.end.p0(i64 4, ptr %11) #8
  br label %56

56:                                               ; preds = %55
  br label %57

57:                                               ; preds = %56
  %58 = load i32, ptr %8, align 4
  store i32 %58, ptr %4, align 4
  store i32 1, ptr %9, align 4
  br label %59

59:                                               ; preds = %57, %22, %17
  call void @llvm.lifetime.end.p0(i64 4, ptr %8) #8
  %60 = load i32, ptr %4, align 4
  ret i32 %60
}