; Function Attrs: nounwind uwtable
define dso_local i32 @cbuf_drop_line(ptr noundef %0, i32 noundef %1, i32 noundef %2) local_unnamed_addr #0 {
  %4 = icmp slt i32 %1, 0
  %5 = icmp slt i32 %2, -1
  %or.cond = or i1 %4, %5
  br i1 %or.cond, label %6, label %8

6:                                                ; preds = %3
  %7 = tail call ptr @__errno_location() #14
  store i32 22, ptr %7, align 4
  br label %57

8:                                                ; preds = %3
  %9 = icmp eq i32 %2, 0
  br i1 %9, label %57, label %10

10:                                               ; preds = %8
  %11 = tail call i32 @pthread_mutex_lock(ptr noundef %0) #15
  %.not = icmp eq i32 %11, 0
  br i1 %.not, label %14, label %12

12:                                               ; preds = %10
  %13 = tail call ptr @__errno_location() #14
  store i32 %11, ptr %13, align 4
  tail call void (ptr, ...) @fatal_abort(ptr noundef nonnull @.str.2, ptr noundef nonnull @__func__.cbuf_drop_line) #16
  unreachable

14:                                               ; preds = %10
  %15 = icmp slt i32 %2, 0
  %16 = icmp eq i32 %1, 0
  %or.cond.i = and i1 %16, %15
  br i1 %or.cond.i, label %cbuf_find_unread_line.exit.thread25, label %17

17:                                               ; preds = %14
  %18 = getelementptr inbounds nuw i8, ptr %0, i64 56
  %19 = load i32, ptr %18, align 8
  %20 = icmp eq i32 %19, 0
  br i1 %20, label %cbuf_find_unread_line.exit.thread25, label %21

21:                                               ; preds = %17
  %22 = getelementptr inbounds nuw i8, ptr %0, i64 72
  %23 = load i32, ptr %22, align 8
  %24 = getelementptr inbounds nuw i8, ptr %0, i64 68
  %25 = load i32, ptr %24, align 4
  %.not45.i = icmp eq i32 %23, %25
  br i1 %.not45.i, label %cbuf_find_unread_line.exit.thread25, label %.lr.ph.i

.lr.ph.i:                                         ; preds = %21
  %26 = icmp sgt i32 %2, 0
  %spec.select.i = select i1 %26, i32 -1, i32 %1
  %27 = getelementptr inbounds nuw i8, ptr %0, i64 80
  %28 = load ptr, ptr %27, align 8
  %29 = getelementptr inbounds nuw i8, ptr %0, i64 52
  br label %30

30:                                               ; preds = %41, %.lr.ph.i
  %.051.i = phi i32 [ %2, %.lr.ph.i ], [ %.2.i, %41 ]
  %.03349.i = phi i32 [ 0, %.lr.ph.i ], [ %.235.i, %41 ]
  %.03648.i = phi i32 [ 0, %.lr.ph.i ], [ %31, %41 ]
  %.03747.i = phi i32 [ %23, %.lr.ph.i ], [ %45, %41 ]
  %.14046.i = phi i32 [ %spec.select.i, %.lr.ph.i ], [ %spec.select43.i, %41 ]
  %31 = add nuw nsw i32 %.03648.i, 1
  %32 = icmp sgt i32 %.14046.i, 0
  %33 = sext i1 %32 to i32
  %spec.select43.i = add nsw i32 %.14046.i, %33
  %34 = sext i32 %.03747.i to i64
  %35 = getelementptr inbounds i8, ptr %28, i64 %34
  %36 = load i8, ptr %35, align 1
  %37 = icmp eq i8 %36, 10
  %38 = icmp sgt i32 %.051.i, 0
  %.235.i = select i1 %37, i32 %31, i32 %.03349.i
  %narrow.i = select i1 %37, i1 %38, i1 false
  %spec.select44.i = sext i1 %narrow.i to i32
  %.2.i = add nsw i32 %.051.i, %spec.select44.i
  %39 = icmp eq i32 %spec.select43.i, 0
  %40 = icmp eq i32 %.2.i, 0
  %or.cond3.i = select i1 %39, i1 true, i1 %40
  br i1 %or.cond3.i, label %._crit_edge.i, label %41

41:                                               ; preds = %30
  %42 = add nsw i32 %.03747.i, 1
  %43 = load i32, ptr %29, align 4
  %44 = add nsw i32 %43, 1
  %45 = srem i32 %42, %44
  %.not.i = icmp eq i32 %45, %25
  br i1 %.not.i, label %._crit_edge.i, label %30, !llvm.loop !8

._crit_edge.i:                                    ; preds = %41, %30
  %46 = icmp sgt i32 %.2.i, 0
  br i1 %46, label %cbuf_find_unread_line.exit.thread25, label %cbuf_find_unread_line.exit

cbuf_find_unread_line.exit:                       ; preds = %._crit_edge.i
  %47 = icmp sgt i32 %.235.i, 0
  br i1 %47, label %48, label %cbuf_find_unread_line.exit.thread25

48:                                               ; preds = %cbuf_find_unread_line.exit
  %49 = sub nsw i32 %19, %.235.i
  store i32 %49, ptr %18, align 8
  %50 = add nsw i32 %23, %.235.i
  %51 = load i32, ptr %29, align 4
  %52 = add nsw i32 %51, 1
  %53 = srem i32 %50, %52
  store i32 %53, ptr %22, align 8
  br label %cbuf_find_unread_line.exit.thread25

cbuf_find_unread_line.exit.thread25:              ; preds = %21, %._crit_edge.i, %17, %14, %cbuf_find_unread_line.exit, %48
  %.038.i21 = phi i32 [ %.235.i, %cbuf_find_unread_line.exit ], [ %.235.i, %48 ], [ 0, %14 ], [ 0, %17 ], [ 0, %._crit_edge.i ], [ 0, %21 ]
  %54 = tail call i32 @pthread_mutex_unlock(ptr noundef %0) #15
  %.not19 = icmp eq i32 %54, 0
  br i1 %.not19, label %57, label %55

55:                                               ; preds = %cbuf_find_unread_line.exit.thread25
  %56 = tail call ptr @__errno_location() #14
  store i32 %54, ptr %56, align 4
  tail call void (ptr, ...) @fatal_abort(ptr noundef nonnull @.str.3, ptr noundef nonnull @__func__.cbuf_drop_line) #16
  unreachable

57:                                               ; preds = %cbuf_find_unread_line.exit.thread25, %8, %6
  %.0 = phi i32 [ -1, %6 ], [ 0, %8 ], [ %.038.i21, %cbuf_find_unread_line.exit.thread25 ]
  ret i32 %.0
}